target datalayout = "e-m:e-p270:32:32-p271:32:32-p272:64:64-i64:64-i128:128-f80:128-n8:16:32:64-S128"
target triple = "x86_64-pc-linux-gnu"

%struct._GLFWjoystick = type { i32, i32, ptr, i32, ptr, i32, ptr, i32, [128 x i8], ptr, [33 x i8], ptr, %struct._GLFWjoystickLinux }
%struct._GLFWjoystickLinux = type { i32, [4096 x i8], [512 x i32], [64 x i32], [64 x %struct.input_absinfo], [4 x [2 x i32]] }
%struct.input_absinfo = type { i32, i32, i32, i32, i32, i32 }

; Function Attrs: nounwind uwtable
define hidden void @_glfwFreeJoystick(ptr noundef %0) #0 {
  %2 = alloca ptr, align 8
  store ptr %0, ptr %2, align 8, !tbaa !68
  %3 = load ptr, ptr %2, align 8, !tbaa !68
  %4 = getelementptr inbounds nuw %struct._GLFWjoystick, ptr %3, i32 0, i32 2
  %5 = load ptr, ptr %4, align 8, !tbaa !152
  call void @_glfw_free(ptr noundef %5)
  %6 = load ptr, ptr %2, align 8, !tbaa !68
  %7 = getelementptr inbounds nuw %struct._GLFWjoystick, ptr %6, i32 0, i32 4
  %8 = load ptr, ptr %7, align 8, !tbaa !153
  call void @_glfw_free(ptr noundef %8)
  %9 = load ptr, ptr %2, align 8, !tbaa !68
  %10 = getelementptr inbounds nuw %struct._GLFWjoystick, ptr %9, i32 0, i32 6
  %11 = load ptr, ptr %10, align 8, !tbaa !155
  call void @_glfw_free(ptr noundef %11)
  %12 = load ptr, ptr %2, align 8, !tbaa !68
  call void @llvm.memset.p0.i64(ptr align 8 %12, i8 0, i64 8216, i1 false)
  ret void
}