; Function Attrs: nounwind uwtable
define hidden void @_glfwFreeJoystick(ptr noundef captures(none) initializes((0, 8), (16, 24), (32, 40), (48, 8216)) %0) local_unnamed_addr #0 {
  %2 = getelementptr inbounds nuw i8, ptr %0, i64 8
  %3 = load ptr, ptr %2, align 8, !tbaa !144
  tail call void @_glfw_free(ptr noundef %3) #12
  %4 = getelementptr inbounds nuw i8, ptr %0, i64 24
  %5 = load ptr, ptr %4, align 8, !tbaa !146
  tail call void @_glfw_free(ptr noundef %5) #12
  %6 = getelementptr inbounds nuw i8, ptr %0, i64 40
  %7 = load ptr, ptr %6, align 8, !tbaa !148
  tail call void @_glfw_free(ptr noundef %7) #12
  tail call void @llvm.memset.p0.i64(ptr noundef nonnull align 8 dereferenceable(8216) %0, i8 0, i64 8216, i1 false)
  ret void
}